target datalayout = "e-m:e-p270:32:32-p271:32:32-p272:64:64-i64:64-i128:128-f80:128-n8:16:32:64-S128"
target triple = "x86_64-pc-linux-gnu"

%struct.archive_read_filter_vtable = type { ptr, ptr, ptr }
%struct.archive_read = type { %struct.archive, ptr, i32, i64, i64, %struct.archive_read_client, [16 x %struct.archive_read_filter_bidder], ptr, i32, i64, i32, i32, [16 x %struct.archive_format_descriptor], ptr, ptr, ptr, %struct.anon }
%struct.archive = type { i32, i32, ptr, i32, ptr, i32, i32, ptr, %struct.archive_string, ptr, i32, i32, ptr, ptr, i64, i64, i64, i8, i64 }
%struct.archive_string = type { ptr, i64, i64 }
%struct.archive_read_client = type { ptr, ptr, ptr, ptr, ptr, ptr, i32, i32, i64, ptr }
%struct.archive_read_filter_bidder = type { ptr, ptr, ptr }
%struct.archive_format_descriptor = type { ptr, ptr, ptr, ptr, ptr, ptr, ptr, ptr, ptr, ptr, ptr }
%struct.anon = type { ptr, ptr, i32, ptr, ptr }
%struct.archive_read_filter = type { i64, ptr, ptr, ptr, ptr, ptr, ptr, i32, i32, i32, ptr, i64, ptr, i64, ptr, i64, ptr, i64, i8, i8, i8 }
%struct.archive_read_filter_bidder_vtable = type { ptr, ptr, ptr }
%struct.archive_read_passphrase = type { ptr, ptr }

@.str.27 = private unnamed_addr constant [18 x i8] c"archive_read_free\00", align 1

; Function Attrs: nounwind uwtable
define internal i32 @close_filters(ptr noundef %0) #0 {
  %2 = alloca ptr, align 8
  %3 = alloca ptr, align 8
  %4 = alloca i32, align 4
  %5 = alloca ptr, align 8
  %6 = alloca i32, align 4
  store ptr %0, ptr %2, align 8, !tbaa !4
  call void @llvm.lifetime.start.p0(i64 8, ptr %3) #11
  %7 = load ptr, ptr %2, align 8, !tbaa !4
  %8 = getelementptr inbounds nuw %struct.archive_read, ptr %7, i32 0, i32 7
  %9 = load ptr, ptr %8, align 8, !tbaa !59
  store ptr %9, ptr %3, align 8, !tbaa !45
  call void @llvm.lifetime.start.p0(i64 4, ptr %4) #11
  store i32 0, ptr %4, align 4, !tbaa !38
  br label %10

10:                                               ; preds = %42, %1
  %11 = load ptr, ptr %3, align 8, !tbaa !45
  %12 = icmp ne ptr %11, null
  br i1 %12, label %13, label %49

13:                                               ; preds = %10
  call void @llvm.lifetime.start.p0(i64 8, ptr %5) #11
  %14 = load ptr, ptr %3, align 8, !tbaa !45
  %15 = getelementptr inbounds nuw %struct.archive_read_filter, ptr %14, i32 0, i32 2
  %16 = load ptr, ptr %15, align 8, !tbaa !50
  store ptr %16, ptr %5, align 8, !tbaa !45
  %17 = load ptr, ptr %3, align 8, !tbaa !45
  %18 = getelementptr inbounds nuw %struct.archive_read_filter, ptr %17, i32 0, i32 19
  %19 = load i8, ptr %18, align 1, !tbaa !84
  %20 = icmp ne i8 %19, 0
  br i1 %20, label %42, label %21

21:                                               ; preds = %13
  %22 = load ptr, ptr %3, align 8, !tbaa !45
  %23 = getelementptr inbounds nuw %struct.archive_read_filter, ptr %22, i32 0, i32 4
  %24 = load ptr, ptr %23, align 8, !tbaa !53
  %25 = icmp ne ptr %24, null
  br i1 %25, label %26, label %42

26:                                               ; preds = %21
  call void @llvm.lifetime.start.p0(i64 4, ptr %6) #11
  %27 = load ptr, ptr %3, align 8, !tbaa !45
  %28 = getelementptr inbounds nuw %struct.archive_read_filter, ptr %27, i32 0, i32 4
  %29 = load ptr, ptr %28, align 8, !tbaa !53
  %30 = getelementptr inbounds nuw %struct.archive_read_filter_vtable, ptr %29, i32 0, i32 1
  %31 = load ptr, ptr %30, align 8, !tbaa !85
  %32 = load ptr, ptr %3, align 8, !tbaa !45
  %33 = call i32 %31(ptr noundef %32)
  store i32 %33, ptr %6, align 4, !tbaa !38
  %34 = load ptr, ptr %3, align 8, !tbaa !45
  %35 = getelementptr inbounds nuw %struct.archive_read_filter, ptr %34, i32 0, i32 19
  store i8 1, ptr %35, align 1, !tbaa !84
  %36 = load i32, ptr %6, align 4, !tbaa !38
  %37 = load i32, ptr %4, align 4, !tbaa !38
  %38 = icmp slt i32 %36, %37
  br i1 %38, label %39, label %41

39:                                               ; preds = %26
  %40 = load i32, ptr %6, align 4, !tbaa !38
  store i32 %40, ptr %4, align 4, !tbaa !38
  br label %41

41:                                               ; preds = %39, %26
  call void @llvm.lifetime.end.p0(i64 4, ptr %6) #11
  br label %42

42:                                               ; preds = %41, %21, %13
  %43 = load ptr, ptr %3, align 8, !tbaa !45
  %44 = getelementptr inbounds nuw %struct.archive_read_filter, ptr %43, i32 0, i32 10
  %45 = load ptr, ptr %44, align 8, !tbaa !87
  call void @free(ptr noundef %45) #11
  %46 = load ptr, ptr %3, align 8, !tbaa !45
  %47 = getelementptr inbounds nuw %struct.archive_read_filter, ptr %46, i32 0, i32 10
  store ptr null, ptr %47, align 8, !tbaa !87
  %48 = load ptr, ptr %5, align 8, !tbaa !45
  store ptr %48, ptr %3, align 8, !tbaa !45
  call void @llvm.lifetime.end.p0(i64 8, ptr %5) #11
  br label %10, !llvm.loop !88

49:                                               ; preds = %10
  %50 = load i32, ptr %4, align 4, !tbaa !38
  call void @llvm.lifetime.end.p0(i64 4, ptr %4) #11
  call void @llvm.lifetime.end.p0(i64 8, ptr %3) #11
  ret i32 %50
}

; Function Attrs: nounwind uwtable
define dso_local void @__archive_read_free_filters(ptr noundef %0) #0 {
  %2 = alloca ptr, align 8
  %3 = alloca ptr, align 8
  store ptr %0, ptr %2, align 8, !tbaa !4
  %4 = load ptr, ptr %2, align 8, !tbaa !4
  %5 = call i32 @close_filters(ptr noundef %4)
  br label %6

6:                                                ; preds = %11, %1
  %7 = load ptr, ptr %2, align 8, !tbaa !4
  %8 = getelementptr inbounds nuw %struct.archive_read, ptr %7, i32 0, i32 7
  %9 = load ptr, ptr %8, align 8, !tbaa !59
  %10 = icmp ne ptr %9, null
  br i1 %10, label %11, label %23

11:                                               ; preds = %6
  call void @llvm.lifetime.start.p0(i64 8, ptr %3) #11
  %12 = load ptr, ptr %2, align 8, !tbaa !4
  %13 = getelementptr inbounds nuw %struct.archive_read, ptr %12, i32 0, i32 7
  %14 = load ptr, ptr %13, align 8, !tbaa !59
  %15 = getelementptr inbounds nuw %struct.archive_read_filter, ptr %14, i32 0, i32 2
  %16 = load ptr, ptr %15, align 8, !tbaa !50
  store ptr %16, ptr %3, align 8, !tbaa !45
  %17 = load ptr, ptr %2, align 8, !tbaa !4
  %18 = getelementptr inbounds nuw %struct.archive_read, ptr %17, i32 0, i32 7
  %19 = load ptr, ptr %18, align 8, !tbaa !59
  call void @free(ptr noundef %19) #11
  %20 = load ptr, ptr %3, align 8, !tbaa !45
  %21 = load ptr, ptr %2, align 8, !tbaa !4
  %22 = getelementptr inbounds nuw %struct.archive_read, ptr %21, i32 0, i32 7
  store ptr %20, ptr %22, align 8, !tbaa !59
  call void @llvm.lifetime.end.p0(i64 8, ptr %3) #11
  br label %6, !llvm.loop !106

23:                                               ; preds = %6
  ret void
}

; Function Attrs: nounwind uwtable
define internal i32 @_archive_read_free(ptr noundef %0) #0 {
  %2 = alloca i32, align 4
  %3 = alloca ptr, align 8
  %4 = alloca ptr, align 8
  %5 = alloca ptr, align 8
  %6 = alloca i32, align 4
  %7 = alloca i32, align 4
  %8 = alloca i32, align 4
  %9 = alloca i32, align 4
  %10 = alloca i32, align 4
  %11 = alloca i32, align 4
  %12 = alloca ptr, align 8
  store ptr %0, ptr %3, align 8, !tbaa !31
  call void @llvm.lifetime.start.p0(i64 8, ptr %4) #11
  %13 = load ptr, ptr %3, align 8, !tbaa !31
  store ptr %13, ptr %4, align 8, !tbaa !4
  call void @llvm.lifetime.start.p0(i64 8, ptr %5) #11
  call void @llvm.lifetime.start.p0(i64 4, ptr %6) #11
  call void @llvm.lifetime.start.p0(i64 4, ptr %7) #11
  call void @llvm.lifetime.start.p0(i64 4, ptr %8) #11
  call void @llvm.lifetime.start.p0(i64 4, ptr %9) #11
  store i32 0, ptr %9, align 4, !tbaa !38
  %14 = load ptr, ptr %3, align 8, !tbaa !31
  %15 = icmp eq ptr %14, null
  br i1 %15, label %16, label %17

16:                                               ; preds = %1
  store i32 0, ptr %2, align 4
  store i32 1, ptr %10, align 4
  br label %179

17:                                               ; preds = %1
  br label %18

18:                                               ; preds = %17
  call void @llvm.lifetime.start.p0(i64 4, ptr %11) #11
  %19 = load ptr, ptr %3, align 8, !tbaa !31
  %20 = call i32 @__archive_check_magic(ptr noundef %19, i32 noundef 14594245, i32 noundef 65535, ptr noundef @.str.27)
  store i32 %20, ptr %11, align 4, !tbaa !38
  %21 = load i32, ptr %11, align 4, !tbaa !38
  %22 = icmp eq i32 %21, -30
  br i1 %22, label %23, label %24

23:                                               ; preds = %18
  store i32 -30, ptr %2, align 4
  store i32 1, ptr %10, align 4
  br label %25

24:                                               ; preds = %18
  store i32 0, ptr %10, align 4
  br label %25

25:                                               ; preds = %24, %23
  call void @llvm.lifetime.end.p0(i64 4, ptr %11) #11
  %26 = load i32, ptr %10, align 4
  switch i32 %26, label %179 [
    i32 0, label %27
  ]

27:                                               ; preds = %25
  br label %28

28:                                               ; preds = %27
  br label %29

29:                                               ; preds = %28
  %30 = load ptr, ptr %4, align 8, !tbaa !4
  %31 = getelementptr inbounds nuw %struct.archive_read, ptr %30, i32 0, i32 0
  %32 = getelementptr inbounds nuw %struct.archive, ptr %31, i32 0, i32 1
  %33 = load i32, ptr %32, align 4, !tbaa !27
  %34 = icmp ne i32 %33, 32
  br i1 %34, label %35, label %45

35:                                               ; preds = %29
  %36 = load ptr, ptr %4, align 8, !tbaa !4
  %37 = getelementptr inbounds nuw %struct.archive_read, ptr %36, i32 0, i32 0
  %38 = getelementptr inbounds nuw %struct.archive, ptr %37, i32 0, i32 1
  %39 = load i32, ptr %38, align 4, !tbaa !27
  %40 = icmp ne i32 %39, 32768
  br i1 %40, label %41, label %45

41:                                               ; preds = %35
  %42 = load ptr, ptr %4, align 8, !tbaa !4
  %43 = getelementptr inbounds nuw %struct.archive_read, ptr %42, i32 0, i32 0
  %44 = call i32 @archive_read_close(ptr noundef %43)
  store i32 %44, ptr %9, align 4, !tbaa !38
  br label %45

45:                                               ; preds = %41, %35, %29
  %46 = load ptr, ptr %4, align 8, !tbaa !4
  %47 = getelementptr inbounds nuw %struct.archive_read, ptr %46, i32 0, i32 15
  %48 = load ptr, ptr %47, align 8, !tbaa !135
  %49 = icmp ne ptr %48, null
  br i1 %49, label %50, label %56

50:                                               ; preds = %45
  %51 = load ptr, ptr %4, align 8, !tbaa !4
  %52 = getelementptr inbounds nuw %struct.archive_read, ptr %51, i32 0, i32 15
  %53 = load ptr, ptr %52, align 8, !tbaa !135
  %54 = load ptr, ptr %4, align 8, !tbaa !4
  %55 = call i32 %53(ptr noundef %54)
  store i32 %55, ptr %9, align 4, !tbaa !38
  br label %56

56:                                               ; preds = %50, %45
  store i32 16, ptr %8, align 4, !tbaa !38
  store i32 0, ptr %6, align 4, !tbaa !38
  br label %57

57:                                               ; preds = %88, %56
  %58 = load i32, ptr %6, align 4, !tbaa !38
  %59 = load i32, ptr %8, align 4, !tbaa !38
  %60 = icmp slt i32 %58, %59
  br i1 %60, label %61, label %91

61:                                               ; preds = %57
  %62 = load ptr, ptr %4, align 8, !tbaa !4
  %63 = getelementptr inbounds nuw %struct.archive_read, ptr %62, i32 0, i32 12
  %64 = load i32, ptr %6, align 4, !tbaa !38
  %65 = sext i32 %64 to i64
  %66 = getelementptr inbounds [16 x %struct.archive_format_descriptor], ptr %63, i64 0, i64 %65
  %67 = load ptr, ptr %4, align 8, !tbaa !4
  %68 = getelementptr inbounds nuw %struct.archive_read, ptr %67, i32 0, i32 13
  store ptr %66, ptr %68, align 8, !tbaa !63
  %69 = load ptr, ptr %4, align 8, !tbaa !4
  %70 = getelementptr inbounds nuw %struct.archive_read, ptr %69, i32 0, i32 12
  %71 = load i32, ptr %6, align 4, !tbaa !38
  %72 = sext i32 %71 to i64
  %73 = getelementptr inbounds [16 x %struct.archive_format_descriptor], ptr %70, i64 0, i64 %72
  %74 = getelementptr inbounds nuw %struct.archive_format_descriptor, ptr %73, i32 0, i32 8
  %75 = load ptr, ptr %74, align 8, !tbaa !110
  %76 = icmp ne ptr %75, null
  br i1 %76, label %77, label %87

77:                                               ; preds = %61
  %78 = load ptr, ptr %4, align 8, !tbaa !4
  %79 = getelementptr inbounds nuw %struct.archive_read, ptr %78, i32 0, i32 12
  %80 = load i32, ptr %6, align 4, !tbaa !38
  %81 = sext i32 %80 to i64
  %82 = getelementptr inbounds [16 x %struct.archive_format_descriptor], ptr %79, i64 0, i64 %81
  %83 = getelementptr inbounds nuw %struct.archive_format_descriptor, ptr %82, i32 0, i32 8
  %84 = load ptr, ptr %83, align 8, !tbaa !110
  %85 = load ptr, ptr %4, align 8, !tbaa !4
  %86 = call i32 %84(ptr noundef %85)
  br label %87

87:                                               ; preds = %77, %61
  br label %88

88:                                               ; preds = %87
  %89 = load i32, ptr %6, align 4, !tbaa !38
  %90 = add nsw i32 %89, 1
  store i32 %90, ptr %6, align 4, !tbaa !38
  br label %57, !llvm.loop !136

91:                                               ; preds = %57
  %92 = load ptr, ptr %4, align 8, !tbaa !4
  call void @__archive_read_free_filters(ptr noundef %92)
  store i32 16, ptr %7, align 4, !tbaa !38
  store i32 0, ptr %6, align 4, !tbaa !38
  br label %93

93:                                               ; preds = %133, %91
  %94 = load i32, ptr %6, align 4, !tbaa !38
  %95 = load i32, ptr %7, align 4, !tbaa !38
  %96 = icmp slt i32 %94, %95
  br i1 %96, label %97, label %136

97:                                               ; preds = %93
  %98 = load ptr, ptr %4, align 8, !tbaa !4
  %99 = getelementptr inbounds nuw %struct.archive_read, ptr %98, i32 0, i32 6
  %100 = load i32, ptr %6, align 4, !tbaa !38
  %101 = sext i32 %100 to i64
  %102 = getelementptr inbounds [16 x %struct.archive_read_filter_bidder], ptr %99, i64 0, i64 %101
  %103 = getelementptr inbounds nuw %struct.archive_read_filter_bidder, ptr %102, i32 0, i32 2
  %104 = load ptr, ptr %103, align 8, !tbaa !72
  %105 = icmp eq ptr %104, null
  br i1 %105, label %117, label %106

106:                                              ; preds = %97
  %107 = load ptr, ptr %4, align 8, !tbaa !4
  %108 = getelementptr inbounds nuw %struct.archive_read, ptr %107, i32 0, i32 6
  %109 = load i32, ptr %6, align 4, !tbaa !38
  %110 = sext i32 %109 to i64
  %111 = getelementptr inbounds [16 x %struct.archive_read_filter_bidder], ptr %108, i64 0, i64 %110
  %112 = getelementptr inbounds nuw %struct.archive_read_filter_bidder, ptr %111, i32 0, i32 2
  %113 = load ptr, ptr %112, align 8, !tbaa !72
  %114 = getelementptr inbounds nuw %struct.archive_read_filter_bidder_vtable, ptr %113, i32 0, i32 2
  %115 = load ptr, ptr %114, align 8, !tbaa !137
  %116 = icmp eq ptr %115, null
  br i1 %116, label %117, label %118

117:                                              ; preds = %106, %97
  br label %133

118:                                              ; preds = %106
  %119 = load ptr, ptr %4, align 8, !tbaa !4
  %120 = getelementptr inbounds nuw %struct.archive_read, ptr %119, i32 0, i32 6
  %121 = load i32, ptr %6, align 4, !tbaa !38
  %122 = sext i32 %121 to i64
  %123 = getelementptr inbounds [16 x %struct.archive_read_filter_bidder], ptr %120, i64 0, i64 %122
  %124 = getelementptr inbounds nuw %struct.archive_read_filter_bidder, ptr %123, i32 0, i32 2
  %125 = load ptr, ptr %124, align 8, !tbaa !72
  %126 = getelementptr inbounds nuw %struct.archive_read_filter_bidder_vtable, ptr %125, i32 0, i32 2
  %127 = load ptr, ptr %126, align 8, !tbaa !137
  %128 = load ptr, ptr %4, align 8, !tbaa !4
  %129 = getelementptr inbounds nuw %struct.archive_read, ptr %128, i32 0, i32 6
  %130 = load i32, ptr %6, align 4, !tbaa !38
  %131 = sext i32 %130 to i64
  %132 = getelementptr inbounds [16 x %struct.archive_read_filter_bidder], ptr %129, i64 0, i64 %131
  call void %127(ptr noundef %132)
  br label %133

133:                                              ; preds = %118, %117
  %134 = load i32, ptr %6, align 4, !tbaa !38
  %135 = add nsw i32 %134, 1
  store i32 %135, ptr %6, align 4, !tbaa !38
  br label %93, !llvm.loop !138

136:                                              ; preds = %93
  %137 = load ptr, ptr %4, align 8, !tbaa !4
  %138 = getelementptr inbounds nuw %struct.archive_read, ptr %137, i32 0, i32 16
  %139 = getelementptr inbounds nuw %struct.anon, ptr %138, i32 0, i32 0
  %140 = load ptr, ptr %139, align 8, !tbaa !139
  store ptr %140, ptr %5, align 8, !tbaa !140
  br label %141

141:                                              ; preds = %144, %136
  %142 = load ptr, ptr %5, align 8, !tbaa !140
  %143 = icmp ne ptr %142, null
  br i1 %143, label %144, label %160

144:                                              ; preds = %141
  call void @llvm.lifetime.start.p0(i64 8, ptr %12) #11
  %145 = load ptr, ptr %5, align 8, !tbaa !140
  %146 = getelementptr inbounds nuw %struct.archive_read_passphrase, ptr %145, i32 0, i32 1
  %147 = load ptr, ptr %146, align 8, !tbaa !141
  store ptr %147, ptr %12, align 8, !tbaa !140
  %148 = load ptr, ptr %5, align 8, !tbaa !140
  %149 = getelementptr inbounds nuw %struct.archive_read_passphrase, ptr %148, i32 0, i32 0
  %150 = load ptr, ptr %149, align 8, !tbaa !143
  %151 = load ptr, ptr %5, align 8, !tbaa !140
  %152 = getelementptr inbounds nuw %struct.archive_read_passphrase, ptr %151, i32 0, i32 0
  %153 = load ptr, ptr %152, align 8, !tbaa !143
  %154 = call i64 @strlen(ptr noundef %153) #15
  call void @llvm.memset.p0.i64(ptr align 1 %150, i8 0, i64 %154, i1 false)
  %155 = load ptr, ptr %5, align 8, !tbaa !140
  %156 = getelementptr inbounds nuw %struct.archive_read_passphrase, ptr %155, i32 0, i32 0
  %157 = load ptr, ptr %156, align 8, !tbaa !143
  call void @free(ptr noundef %157) #11
  %158 = load ptr, ptr %5, align 8, !tbaa !140
  call void @free(ptr noundef %158) #11
  %159 = load ptr, ptr %12, align 8, !tbaa !140
  store ptr %159, ptr %5, align 8, !tbaa !140
  call void @llvm.lifetime.end.p0(i64 8, ptr %12) #11
  br label %141, !llvm.loop !144

160:                                              ; preds = %141
  %161 = load ptr, ptr %4, align 8, !tbaa !4
  %162 = getelementptr inbounds nuw %struct.archive_read, ptr %161, i32 0, i32 0
  %163 = getelementptr inbounds nuw %struct.archive, ptr %162, i32 0, i32 8
  call void @archive_string_free(ptr noundef %163)
  %164 = load ptr, ptr %4, align 8, !tbaa !4
  %165 = getelementptr inbounds nuw %struct.archive_read, ptr %164, i32 0, i32 1
  %166 = load ptr, ptr %165, align 8, !tbaa !28
  call void @archive_entry_free(ptr noundef %166)
  %167 = load ptr, ptr %4, align 8, !tbaa !4
  %168 = getelementptr inbounds nuw %struct.archive_read, ptr %167, i32 0, i32 0
  %169 = getelementptr inbounds nuw %struct.archive, ptr %168, i32 0, i32 0
  store i32 0, ptr %169, align 8, !tbaa !9
  %170 = load ptr, ptr %4, align 8, !tbaa !4
  %171 = getelementptr inbounds nuw %struct.archive_read, ptr %170, i32 0, i32 0
  %172 = call i32 @__archive_clean(ptr noundef %171)
  %173 = load ptr, ptr %4, align 8, !tbaa !4
  %174 = getelementptr inbounds nuw %struct.archive_read, ptr %173, i32 0, i32 5
  %175 = getelementptr inbounds nuw %struct.archive_read_client, ptr %174, i32 0, i32 9
  %176 = load ptr, ptr %175, align 8, !tbaa !42
  call void @free(ptr noundef %176) #11
  %177 = load ptr, ptr %4, align 8, !tbaa !4
  call void @free(ptr noundef %177) #11
  %178 = load i32, ptr %9, align 4, !tbaa !38
  store i32 %178, ptr %2, align 4
  store i32 1, ptr %10, align 4
  br label %179

179:                                              ; preds = %160, %25, %16
  call void @llvm.lifetime.end.p0(i64 4, ptr %9) #11
  call void @llvm.lifetime.end.p0(i64 4, ptr %8) #11
  call void @llvm.lifetime.end.p0(i64 4, ptr %7) #11
  call void @llvm.lifetime.end.p0(i64 4, ptr %6) #11
  call void @llvm.lifetime.end.p0(i64 8, ptr %5) #11
  call void @llvm.lifetime.end.p0(i64 8, ptr %4) #11
  %180 = load i32, ptr %2, align 4
  ret i32 %180
}