; Function Attrs: nounwind uwtable
define internal i32 @_archive_read_free(ptr noundef %0) #0 {
  %2 = icmp eq ptr %0, null
  br i1 %2, label %70, label %3

3:                                                ; preds = %1
  %4 = tail call i32 @__archive_check_magic(ptr noundef nonnull %0, i32 noundef 14594245, i32 noundef 65535, ptr noundef nonnull @.str.27) #15
  %.not = icmp eq i32 %4, -30
  br i1 %.not, label %70, label %5

5:                                                ; preds = %3
  %6 = getelementptr inbounds nuw i8, ptr %0, i64 4
  %7 = load i32, ptr %6, align 4, !tbaa !25
  switch i32 %7, label %8 [
    i32 32, label %10
    i32 32768, label %10
  ]

8:                                                ; preds = %5
  %9 = tail call i32 @archive_read_close(ptr noundef nonnull %0) #15
  br label %10

10:                                               ; preds = %5, %5, %8
  %.051 = phi i32 [ %9, %8 ], [ 0, %5 ], [ 0, %5 ]
  %11 = getelementptr inbounds nuw i8, ptr %0, i64 2088
  %12 = load ptr, ptr %11, align 8, !tbaa !122
  %.not63 = icmp eq ptr %12, null
  br i1 %.not63, label %15, label %13

13:                                               ; preds = %10
  %14 = tail call i32 %12(ptr noundef nonnull %0) #15
  br label %15

15:                                               ; preds = %13, %10
  %.152 = phi i32 [ %14, %13 ], [ %.051, %10 ]
  %16 = getelementptr inbounds nuw i8, ptr %0, i64 664
  %17 = getelementptr inbounds nuw i8, ptr %0, i64 2072
  br label %18

18:                                               ; preds = %15, %24
  %indvars.iv = phi i64 [ 0, %15 ], [ %indvars.iv.next, %24 ]
  %19 = getelementptr inbounds nuw [16 x %struct.archive_format_descriptor], ptr %16, i64 0, i64 %indvars.iv
  store ptr %19, ptr %17, align 8, !tbaa !73
  %20 = getelementptr inbounds nuw i8, ptr %19, i64 64
  %21 = load ptr, ptr %20, align 8, !tbaa !102
  %.not65 = icmp eq ptr %21, null
  br i1 %.not65, label %24, label %22

22:                                               ; preds = %18
  %23 = tail call i32 %21(ptr noundef nonnull %0) #15
  br label %24

24:                                               ; preds = %18, %22
  %indvars.iv.next = add nuw nsw i64 %indvars.iv, 1
  %exitcond.not = icmp eq i64 %indvars.iv.next, 16
  br i1 %exitcond.not, label %25, label %18, !llvm.loop !123

25:                                               ; preds = %24
  %26 = getelementptr i8, ptr %0, i64 632
  %.val.i = load ptr, ptr %26, align 8, !tbaa !53
  %.not1.i.i = icmp eq ptr %.val.i, null
  br i1 %.not1.i.i, label %__archive_read_free_filters.exit, label %.lr.ph.i.i

.lr.ph.i.i:                                       ; preds = %25, %38
  %.03.i.i = phi ptr [ %28, %38 ], [ %.val.i, %25 ]
  %27 = getelementptr inbounds nuw i8, ptr %.03.i.i, i64 16
  %28 = load ptr, ptr %27, align 8, !tbaa !63
  %29 = getelementptr inbounds nuw i8, ptr %.03.i.i, i64 137
  %30 = load i8, ptr %29, align 1, !tbaa !64
  %.not17.i.i = icmp eq i8 %30, 0
  br i1 %.not17.i.i, label %31, label %38

31:                                               ; preds = %.lr.ph.i.i
  %32 = getelementptr inbounds nuw i8, ptr %.03.i.i, i64 32
  %33 = load ptr, ptr %32, align 8, !tbaa !47
  %.not18.i.i = icmp eq ptr %33, null
  br i1 %.not18.i.i, label %38, label %34

34:                                               ; preds = %31
  %35 = getelementptr inbounds nuw i8, ptr %33, i64 8
  %36 = load ptr, ptr %35, align 8, !tbaa !65
  %37 = tail call i32 %36(ptr noundef nonnull %.03.i.i) #15
  store i8 1, ptr %29, align 1, !tbaa !64
  br label %38

38:                                               ; preds = %34, %31, %.lr.ph.i.i
  %39 = getelementptr inbounds nuw i8, ptr %.03.i.i, i64 72
  %40 = load ptr, ptr %39, align 8, !tbaa !67
  tail call void @free(ptr noundef %40) #15
  store ptr null, ptr %39, align 8, !tbaa !67
  %.not.i.i = icmp eq ptr %28, null
  br i1 %.not.i.i, label %close_filters.exit.i, label %.lr.ph.i.i, !llvm.loop !68

close_filters.exit.i:                             ; preds = %38
  %.pr.pre.i = load ptr, ptr %26, align 8, !tbaa !53
  %.not6.i = icmp eq ptr %.pr.pre.i, null
  br i1 %.not6.i, label %__archive_read_free_filters.exit, label %.lr.ph.i

.lr.ph.i:                                         ; preds = %close_filters.exit.i, %.lr.ph.i
  %41 = phi ptr [ %43, %.lr.ph.i ], [ %.pr.pre.i, %close_filters.exit.i ]
  %42 = getelementptr inbounds nuw i8, ptr %41, i64 16
  %43 = load ptr, ptr %42, align 8, !tbaa !63
  tail call void @free(ptr noundef nonnull %41) #15
  store ptr %43, ptr %26, align 8, !tbaa !53
  %.not.i = icmp eq ptr %43, null
  br i1 %.not.i, label %__archive_read_free_filters.exit, label %.lr.ph.i, !llvm.loop !69

__archive_read_free_filters.exit:                 ; preds = %.lr.ph.i, %25, %close_filters.exit.i
  %44 = getelementptr inbounds nuw i8, ptr %0, i64 248
  br label %45

45:                                               ; preds = %__archive_read_free_filters.exit, %55
  %indvars.iv71 = phi i64 [ 0, %__archive_read_free_filters.exit ], [ %indvars.iv.next72, %55 ]
  %46 = getelementptr inbounds nuw [16 x %struct.archive_read_filter_bidder], ptr %44, i64 0, i64 %indvars.iv71
  %47 = getelementptr inbounds nuw i8, ptr %46, i64 16
  %48 = load ptr, ptr %47, align 8, !tbaa !56
  %49 = icmp eq ptr %48, null
  br i1 %49, label %55, label %50

50:                                               ; preds = %45
  %51 = getelementptr inbounds nuw i8, ptr %48, i64 16
  %52 = load ptr, ptr %51, align 8, !tbaa !124
  %53 = icmp eq ptr %52, null
  br i1 %53, label %55, label %54

54:                                               ; preds = %50
  tail call void %52(ptr noundef nonnull %46) #15
  br label %55

55:                                               ; preds = %45, %50, %54
  %indvars.iv.next72 = add nuw nsw i64 %indvars.iv71, 1
  %exitcond74.not = icmp eq i64 %indvars.iv.next72, 16
  br i1 %exitcond74.not, label %56, label %45, !llvm.loop !125

56:                                               ; preds = %55
  %57 = getelementptr inbounds nuw i8, ptr %0, i64 2096
  %58 = load ptr, ptr %57, align 8, !tbaa !126
  %.not6468 = icmp eq ptr %58, null
  br i1 %.not6468, label %._crit_edge, label %.lr.ph

.lr.ph:                                           ; preds = %56, %.lr.ph
  %.04969 = phi ptr [ %60, %.lr.ph ], [ %58, %56 ]
  %59 = getelementptr inbounds nuw i8, ptr %.04969, i64 8
  %60 = load ptr, ptr %59, align 8, !tbaa !127
  %61 = load ptr, ptr %.04969, align 8, !tbaa !129
  %62 = tail call i64 @strlen(ptr noundef nonnull dereferenceable(1) %61) #19
  tail call void @llvm.memset.p0.i64(ptr nonnull align 1 %61, i8 0, i64 %62, i1 false)
  %63 = load ptr, ptr %.04969, align 8, !tbaa !129
  tail call void @free(ptr noundef %63) #15
  tail call void @free(ptr noundef nonnull %.04969) #15
  %.not64 = icmp eq ptr %60, null
  br i1 %.not64, label %._crit_edge, label %.lr.ph, !llvm.loop !130

._crit_edge:                                      ; preds = %.lr.ph, %56
  %64 = getelementptr inbounds nuw i8, ptr %0, i64 48
  tail call void @archive_string_free(ptr noundef nonnull %64) #15
  %65 = getelementptr inbounds nuw i8, ptr %0, i64 144
  %66 = load ptr, ptr %65, align 8, !tbaa !26
  tail call void @archive_entry_free(ptr noundef %66) #15
  store i32 0, ptr %0, align 8, !tbaa !4
  %67 = tail call i32 @__archive_clean(ptr noundef nonnull %0) #15
  %68 = getelementptr inbounds nuw i8, ptr %0, i64 240
  %69 = load ptr, ptr %68, align 8, !tbaa !36
  tail call void @free(ptr noundef %69) #15
  tail call void @free(ptr noundef %0) #15
  br label %70

70:                                               ; preds = %1, %3, %._crit_edge
  %.0 = phi i32 [ %.152, %._crit_edge ], [ -30, %3 ], [ 0, %1 ]
  ret i32 %.0
}